; Function Attrs: mustprogress nounwind uwtable
define dso_local noundef ptr @_ZN4llvm13MCELFStreamer16getAttributeItemEj(ptr noundef nonnull align 8 dereferenceable(6601) %0, i32 noundef %1) local_unnamed_addr #0 align 2 {
  %3 = getelementptr inbounds nuw i8, ptr %0, i64 424
  %4 = load ptr, ptr %3, align 8
  %5 = tail call noundef i64 @_ZNK4llvm15SmallVectorBaseIjE4sizeEv(ptr noundef nonnull align 8 dereferenceable(16) %3) #15
  %6 = getelementptr inbounds %"struct.llvm::MCELFStreamer::AttributeItem", ptr %4, i64 %5
  %.not11 = icmp eq i64 %5, 0
  br i1 %.not11, label %._crit_edge, label %.lr.ph

.lr.ph:                                           ; preds = %2, %10
  %.01012 = phi ptr [ %11, %10 ], [ %4, %2 ]
  %7 = getelementptr inbounds nuw i8, ptr %.01012, i64 4
  %8 = load i32, ptr %7, align 4
  %9 = icmp eq i32 %8, %1
  br i1 %9, label %._crit_edge, label %10

10:                                               ; preds = %.lr.ph
  %11 = getelementptr inbounds i8, ptr %.01012, i64 48
  %.not = icmp eq ptr %11, %6
  br i1 %.not, label %._crit_edge, label %.lr.ph

._crit_edge:                                      ; preds = %.lr.ph, %10, %2
  %.0 = phi ptr [ null, %2 ], [ null, %10 ], [ %.01012, %.lr.ph ]
  ret ptr %.0
}